; Function Attrs: inlinehint nofree nosync nounwind memory(argmem: readwrite) uwtable
define internal fastcc i64 @Abc_Tt6Isop(i64 noundef %0, i64 noundef %1, i32 noundef %2, ptr noundef nonnull %3) unnamed_addr #16 {
  %5 = icmp eq i64 %0, 0
  br i1 %5, label %.loopexit, label %.lr.ph

.lr.ph:                                           ; preds = %4, %tailrecurse
  %.tr4855 = phi i32 [ %.0.lcssa, %tailrecurse ], [ %2, %4 ]
  %.tr4754 = phi i64 [ %55, %tailrecurse ], [ %1, %4 ]
  %.tr53 = phi i64 [ %54, %tailrecurse ], [ %0, %4 ]
  %accumulator.tr52 = phi i64 [ %59, %tailrecurse ], [ 0, %4 ]
  %6 = icmp eq i64 %.tr4754, -1
  br i1 %6, label %9, label %.preheader.preheader

.preheader.preheader:                             ; preds = %.lr.ph
  %7 = zext i32 %.tr4855 to i64
  %smin = tail call i32 @llvm.smin.i32(i32 %.tr4855, i32 0)
  %8 = add i32 %smin, -1
  br label %.preheader

9:                                                ; preds = %.lr.ph
  %10 = load i32, ptr %3, align 4, !tbaa !12
  %11 = add nsw i32 %10, 1
  store i32 %11, ptr %3, align 4, !tbaa !12
  br label %.loopexit

.preheader:                                       ; preds = %.preheader.preheader, %23
  %indvars.iv = phi i64 [ %7, %.preheader.preheader ], [ %indvars.iv.next, %23 ]
  %indvars.iv.next = add nsw i64 %indvars.iv, -1
  %indvars = trunc i64 %indvars.iv.next to i32
  %12 = trunc nuw i64 %indvars.iv to i32
  %13 = icmp sgt i32 %12, 0
  br i1 %13, label %14, label %.preheader.tailrecurse_crit_edge

.preheader.tailrecurse_crit_edge:                 ; preds = %.preheader
  %.pre = shl nuw nsw i32 1, %8
  %.pre58 = zext nneg i32 %.pre to i64
  br label %tailrecurse

14:                                               ; preds = %.preheader
  %15 = shl nuw i32 1, %indvars
  %16 = zext nneg i32 %15 to i64
  %17 = lshr i64 %.tr53, %16
  %18 = and i64 %indvars.iv.next, 4294967295
  %19 = getelementptr inbounds nuw [6 x i64], ptr @s_Truths6Neg, i64 0, i64 %18
  %20 = load i64, ptr %19, align 8, !tbaa !3
  %21 = xor i64 %17, %.tr53
  %22 = and i64 %20, %21
  %.not46 = icmp eq i64 %22, 0
  br i1 %.not46, label %23, label %tailrecurse

23:                                               ; preds = %14
  %24 = lshr i64 %.tr4754, %16
  %25 = xor i64 %24, %.tr4754
  %26 = and i64 %20, %25
  %.not = icmp eq i64 %26, 0
  br i1 %.not, label %.preheader, label %tailrecurse, !llvm.loop !311

tailrecurse:                                      ; preds = %14, %23, %.preheader.tailrecurse_crit_edge
  %.pre-phi59 = phi i64 [ %.pre58, %.preheader.tailrecurse_crit_edge ], [ %16, %23 ], [ %16, %14 ]
  %.0.lcssa = phi i32 [ %8, %.preheader.tailrecurse_crit_edge ], [ %indvars, %23 ], [ %indvars, %14 ]
  %27 = sext i32 %.0.lcssa to i64
  %28 = getelementptr inbounds [6 x i64], ptr @s_Truths6Neg, i64 0, i64 %27
  %29 = load i64, ptr %28, align 8, !tbaa !3
  %30 = and i64 %29, %.tr53
  %31 = shl i64 %30, %.pre-phi59
  %32 = or i64 %31, %30
  %33 = getelementptr inbounds [6 x i64], ptr @s_Truths6, i64 0, i64 %27
  %34 = load i64, ptr %33, align 8, !tbaa !3
  %35 = and i64 %34, %.tr53
  %36 = lshr i64 %35, %.pre-phi59
  %37 = or i64 %36, %35
  %38 = and i64 %29, %.tr4754
  %39 = shl i64 %38, %.pre-phi59
  %40 = or i64 %39, %38
  %41 = and i64 %34, %.tr4754
  %42 = lshr i64 %41, %.pre-phi59
  %43 = or i64 %42, %41
  %44 = xor i64 %43, -1
  %45 = and i64 %32, %44
  %46 = tail call fastcc i64 @Abc_Tt6Isop(i64 noundef %45, i64 noundef %40, i32 noundef %.0.lcssa, ptr noundef %3)
  %47 = xor i64 %40, -1
  %48 = and i64 %37, %47
  %49 = tail call fastcc i64 @Abc_Tt6Isop(i64 noundef %48, i64 noundef %43, i32 noundef %.0.lcssa, ptr noundef %3)
  %50 = xor i64 %46, -1
  %51 = and i64 %32, %50
  %52 = xor i64 %49, -1
  %53 = and i64 %37, %52
  %54 = or i64 %53, %51
  %55 = and i64 %43, %40
  %56 = and i64 %46, %29
  %57 = and i64 %49, %34
  %58 = or i64 %56, %57
  %59 = or i64 %58, %accumulator.tr52
  %60 = icmp eq i64 %54, 0
  br i1 %60, label %.loopexit, label %.lr.ph

.loopexit:                                        ; preds = %tailrecurse, %4, %9
  %accumulator.tr51 = phi i64 [ %accumulator.tr52, %9 ], [ 0, %4 ], [ %59, %tailrecurse ]
  %.042 = phi i64 [ -1, %9 ], [ 0, %4 ], [ 0, %tailrecurse ]
  %accumulator.ret.tr = or i64 %.042, %accumulator.tr51
  ret i64 %accumulator.ret.tr
}